target datalayout = "e-m:e-p270:32:32-p271:32:32-p272:64:64-i64:64-i128:128-f80:128-n8:16:32:64-S128"
target triple = "x86_64-pc-linux-gnu"

%struct._capture_file = type { ptr, i32, ptr, ptr, i8, i8, i8, i64, i16, i32, i32, i32, ptr, i32, i64, i32, i32, i32, i32, i8, i32, %struct.nstime_t, i32, ptr, ptr, ptr, i8, i8, i32, ptr, i8, i8, i8, i8, i8, i32, i32, i8, ptr, i32, i32, i8, %struct.packet_provider_data, i32, i32, %struct.epan_column_info, ptr, ptr, ptr, %struct.wtap_rec, %struct.Buffer, ptr, i64, i32 }
%struct.nstime_t = type { i64, i32 }
%struct.packet_provider_data = type { ptr, ptr, ptr, ptr, ptr, ptr }
%struct.epan_column_info = type { ptr, i32, ptr, ptr, ptr, %struct.col_expr_t, i8, ptr }
%struct.col_expr_t = type { ptr, ptr }
%struct.wtap_rec = type { i32, i32, i32, %struct.nstime_t, i32, %struct.nstime_t, i8, %union.anon, ptr, i8, %struct.Buffer, %struct.Buffer }
%union.anon = type { %struct.wtap_packet_header }
%struct.wtap_packet_header = type { i32, i32, i32, i32, %union.wtap_pseudo_header }
%union.wtap_pseudo_header = type { %struct.erf_mc_phdr }
%struct.erf_mc_phdr = type { %struct.erf_phdr, [16 x %struct.erf_ehdr], %union.anon.1 }
%struct.erf_phdr = type { i64, i8, i8, i16, i16, i16 }
%struct.erf_ehdr = type { i64 }
%union.anon.1 = type { i32 }
%struct.Buffer = type { ptr, i64, i64, i64 }
%struct.col_item_t = type { i32, ptr, ptr, ptr, i32, ptr, ptr, ptr, ptr, i32, i8, i32 }
%struct.col_custom_t = type { ptr, ptr, i32 }
%struct._header_field_info = type { ptr, ptr, i32, i32, ptr, i64, ptr, i32, i32, i32, i32, ptr }

; Function Attrs: null_pointer_is_valid sspstrong uwtable
define hidden zeroext i1 @right_justify_column(i32 noundef %0, ptr noundef %1) #0 {
  %3 = alloca i1, align 1
  %4 = alloca i32, align 4
  %5 = alloca ptr, align 8
  %6 = alloca ptr, align 8
  %7 = alloca i8, align 1
  %8 = alloca i32, align 4
  %9 = alloca i32, align 4
  %10 = alloca ptr, align 8
  %11 = alloca i32, align 4
  %12 = alloca i32, align 4
  store i32 %0, ptr %4, align 4
  store ptr %1, ptr %5, align 8
  call void @llvm.lifetime.start.p0(i64 8, ptr %6) #3
  call void @llvm.lifetime.start.p0(i64 1, ptr %7) #3
  store i8 0, ptr %7, align 1
  call void @llvm.lifetime.start.p0(i64 4, ptr %8) #3
  call void @llvm.lifetime.start.p0(i64 4, ptr %9) #3
  call void @llvm.lifetime.start.p0(i64 8, ptr %10) #3
  call void @llvm.lifetime.start.p0(i64 4, ptr %11) #3
  store i32 0, ptr %11, align 4
  %13 = load ptr, ptr %5, align 8
  %14 = icmp ne ptr %13, null
  br i1 %14, label %16, label %15

15:                                               ; preds = %2
  store i1 false, ptr %3, align 1
  store i32 1, ptr %12, align 4
  br label %229

16:                                               ; preds = %2
  %17 = load ptr, ptr %5, align 8
  %18 = getelementptr inbounds nuw %struct._capture_file, ptr %17, i32 0, i32 45
  %19 = getelementptr inbounds nuw %struct.epan_column_info, ptr %18, i32 0, i32 2
  %20 = load ptr, ptr %19, align 8
  %21 = load i32, ptr %4, align 4
  %22 = sext i32 %21 to i64
  %23 = getelementptr %struct.col_item_t, ptr %20, i64 %22
  %24 = getelementptr inbounds nuw %struct.col_item_t, ptr %23, i32 0, i32 0
  %25 = load i32, ptr %24, align 8
  switch i32 %25, label %225 [
    i32 32, label %26
    i32 33, label %26
    i32 34, label %26
    i32 3, label %26
    i32 24, label %26
    i32 10, label %26
    i32 42, label %26
    i32 12, label %26
    i32 38, label %26
    i32 5, label %26
    i32 6, label %26
    i32 4, label %27
  ]

26:                                               ; preds = %16, %16, %16, %16, %16, %16, %16, %16, %16, %16, %16
  store i8 1, ptr %7, align 1
  br label %226

27:                                               ; preds = %16
  %28 = load ptr, ptr %5, align 8
  %29 = getelementptr inbounds nuw %struct._capture_file, ptr %28, i32 0, i32 45
  %30 = getelementptr inbounds nuw %struct.epan_column_info, ptr %29, i32 0, i32 2
  %31 = load ptr, ptr %30, align 8
  %32 = load i32, ptr %4, align 4
  %33 = sext i32 %32 to i64
  %34 = getelementptr %struct.col_item_t, ptr %31, i64 %33
  %35 = getelementptr inbounds nuw %struct.col_item_t, ptr %34, i32 0, i32 5
  %36 = load ptr, ptr %35, align 8
  %37 = call i32 @g_slist_length(ptr noundef %36)
  store i32 %37, ptr %8, align 4
  store i32 0, ptr %9, align 4
  br label %38

38:                                               ; preds = %213, %27
  %39 = load i32, ptr %9, align 4
  %40 = load i32, ptr %8, align 4
  %41 = icmp ult i32 %39, %40
  br i1 %41, label %42, label %216

42:                                               ; preds = %38
  %43 = load ptr, ptr %5, align 8
  %44 = getelementptr inbounds nuw %struct._capture_file, ptr %43, i32 0, i32 45
  %45 = getelementptr inbounds nuw %struct.epan_column_info, ptr %44, i32 0, i32 2
  %46 = load ptr, ptr %45, align 8
  %47 = load i32, ptr %4, align 4
  %48 = sext i32 %47 to i64
  %49 = getelementptr %struct.col_item_t, ptr %46, i64 %48
  %50 = getelementptr inbounds nuw %struct.col_item_t, ptr %49, i32 0, i32 5
  %51 = load ptr, ptr %50, align 8
  %52 = load i32, ptr %9, align 4
  %53 = call ptr @g_slist_nth_data(ptr noundef %51, i32 noundef %52)
  store ptr %53, ptr %10, align 8
  %54 = load ptr, ptr %10, align 8
  %55 = getelementptr inbounds nuw %struct.col_custom_t, ptr %54, i32 0, i32 2
  %56 = load i32, ptr %55, align 8
  %57 = icmp eq i32 %56, 0
  br i1 %57, label %58, label %59

58:                                               ; preds = %42
  store i1 false, ptr %3, align 1
  store i32 1, ptr %12, align 4
  br label %229

59:                                               ; preds = %42
  %60 = load ptr, ptr %10, align 8
  %61 = getelementptr inbounds nuw %struct.col_custom_t, ptr %60, i32 0, i32 2
  %62 = load i32, ptr %61, align 8
  %63 = call ptr @proto_registrar_get_nth(i32 noundef %62)
  store ptr %63, ptr %6, align 8
  %64 = load ptr, ptr %6, align 8
  %65 = icmp ne ptr %64, null
  br i1 %65, label %66, label %212

66:                                               ; preds = %59
  %67 = load i32, ptr %4, align 4
  %68 = call signext i8 @get_column_display_format(i32 noundef %67)
  %69 = sext i8 %68 to i32
  %70 = icmp ne i32 %69, 68
  br i1 %70, label %71, label %212

71:                                               ; preds = %66
  %72 = load ptr, ptr %6, align 8
  %73 = getelementptr inbounds nuw %struct._header_field_info, ptr %72, i32 0, i32 4
  %74 = load ptr, ptr %73, align 8
  %75 = icmp eq ptr %74, null
  br i1 %75, label %81, label %76

76:                                               ; preds = %71
  %77 = load i32, ptr %4, align 4
  %78 = call signext i8 @get_column_display_format(i32 noundef %77)
  %79 = sext i8 %78 to i32
  %80 = icmp eq i32 %79, 85
  br i1 %80, label %81, label %212

81:                                               ; preds = %76, %71
  %82 = load ptr, ptr %6, align 8
  %83 = getelementptr inbounds nuw %struct._header_field_info, ptr %82, i32 0, i32 2
  %84 = load i32, ptr %83, align 8
  %85 = icmp eq i32 %84, 2
  br i1 %85, label %208, label %86

86:                                               ; preds = %81
  %87 = load ptr, ptr %6, align 8
  %88 = getelementptr inbounds nuw %struct._header_field_info, ptr %87, i32 0, i32 2
  %89 = load i32, ptr %88, align 8
  %90 = icmp eq i32 %89, 35
  br i1 %90, label %208, label %91

91:                                               ; preds = %86
  %92 = load ptr, ptr %6, align 8
  %93 = getelementptr inbounds nuw %struct._header_field_info, ptr %92, i32 0, i32 2
  %94 = load i32, ptr %93, align 8
  %95 = icmp eq i32 %94, 23
  br i1 %95, label %208, label %96

96:                                               ; preds = %91
  %97 = load ptr, ptr %6, align 8
  %98 = getelementptr inbounds nuw %struct._header_field_info, ptr %97, i32 0, i32 2
  %99 = load i32, ptr %98, align 8
  %100 = icmp eq i32 %99, 22
  br i1 %100, label %208, label %101

101:                                              ; preds = %96
  %102 = load ptr, ptr %6, align 8
  %103 = getelementptr inbounds nuw %struct._header_field_info, ptr %102, i32 0, i32 2
  %104 = load i32, ptr %103, align 8
  %105 = icmp eq i32 %104, 25
  br i1 %105, label %208, label %106

106:                                              ; preds = %101
  %107 = load ptr, ptr %6, align 8
  %108 = getelementptr inbounds nuw %struct._header_field_info, ptr %107, i32 0, i32 3
  %109 = load i32, ptr %108, align 4
  %110 = and i32 %109, 255
  %111 = icmp eq i32 %110, 1
  br i1 %111, label %118, label %112

112:                                              ; preds = %106
  %113 = load ptr, ptr %6, align 8
  %114 = getelementptr inbounds nuw %struct._header_field_info, ptr %113, i32 0, i32 3
  %115 = load i32, ptr %114, align 4
  %116 = and i32 %115, 255
  %117 = icmp eq i32 %116, 3
  br i1 %117, label %118, label %211

118:                                              ; preds = %112, %106
  %119 = load ptr, ptr %6, align 8
  %120 = getelementptr inbounds nuw %struct._header_field_info, ptr %119, i32 0, i32 2
  %121 = load i32, ptr %120, align 8
  %122 = icmp eq i32 %121, 12
  br i1 %122, label %208, label %123

123:                                              ; preds = %118
  %124 = load ptr, ptr %6, align 8
  %125 = getelementptr inbounds nuw %struct._header_field_info, ptr %124, i32 0, i32 2
  %126 = load i32, ptr %125, align 8
  %127 = icmp eq i32 %126, 13
  br i1 %127, label %208, label %128

128:                                              ; preds = %123
  %129 = load ptr, ptr %6, align 8
  %130 = getelementptr inbounds nuw %struct._header_field_info, ptr %129, i32 0, i32 2
  %131 = load i32, ptr %130, align 8
  %132 = icmp eq i32 %131, 14
  br i1 %132, label %208, label %133

133:                                              ; preds = %128
  %134 = load ptr, ptr %6, align 8
  %135 = getelementptr inbounds nuw %struct._header_field_info, ptr %134, i32 0, i32 2
  %136 = load i32, ptr %135, align 8
  %137 = icmp eq i32 %136, 15
  br i1 %137, label %208, label %138

138:                                              ; preds = %133
  %139 = load ptr, ptr %6, align 8
  %140 = getelementptr inbounds nuw %struct._header_field_info, ptr %139, i32 0, i32 2
  %141 = load i32, ptr %140, align 8
  %142 = icmp eq i32 %141, 16
  br i1 %142, label %208, label %143

143:                                              ; preds = %138
  %144 = load ptr, ptr %6, align 8
  %145 = getelementptr inbounds nuw %struct._header_field_info, ptr %144, i32 0, i32 2
  %146 = load i32, ptr %145, align 8
  %147 = icmp eq i32 %146, 17
  br i1 %147, label %208, label %148

148:                                              ; preds = %143
  %149 = load ptr, ptr %6, align 8
  %150 = getelementptr inbounds nuw %struct._header_field_info, ptr %149, i32 0, i32 2
  %151 = load i32, ptr %150, align 8
  %152 = icmp eq i32 %151, 18
  br i1 %152, label %208, label %153

153:                                              ; preds = %148
  %154 = load ptr, ptr %6, align 8
  %155 = getelementptr inbounds nuw %struct._header_field_info, ptr %154, i32 0, i32 2
  %156 = load i32, ptr %155, align 8
  %157 = icmp eq i32 %156, 19
  br i1 %157, label %208, label %158

158:                                              ; preds = %153
  %159 = load ptr, ptr %6, align 8
  %160 = getelementptr inbounds nuw %struct._header_field_info, ptr %159, i32 0, i32 2
  %161 = load i32, ptr %160, align 8
  %162 = icmp eq i32 %161, 3
  br i1 %162, label %208, label %163

163:                                              ; preds = %158
  %164 = load ptr, ptr %6, align 8
  %165 = getelementptr inbounds nuw %struct._header_field_info, ptr %164, i32 0, i32 2
  %166 = load i32, ptr %165, align 8
  %167 = icmp eq i32 %166, 4
  br i1 %167, label %208, label %168

168:                                              ; preds = %163
  %169 = load ptr, ptr %6, align 8
  %170 = getelementptr inbounds nuw %struct._header_field_info, ptr %169, i32 0, i32 2
  %171 = load i32, ptr %170, align 8
  %172 = icmp eq i32 %171, 5
  br i1 %172, label %208, label %173

173:                                              ; preds = %168
  %174 = load ptr, ptr %6, align 8
  %175 = getelementptr inbounds nuw %struct._header_field_info, ptr %174, i32 0, i32 2
  %176 = load i32, ptr %175, align 8
  %177 = icmp eq i32 %176, 6
  br i1 %177, label %208, label %178

178:                                              ; preds = %173
  %179 = load ptr, ptr %6, align 8
  %180 = getelementptr inbounds nuw %struct._header_field_info, ptr %179, i32 0, i32 2
  %181 = load i32, ptr %180, align 8
  %182 = icmp eq i32 %181, 7
  br i1 %182, label %208, label %183

183:                                              ; preds = %178
  %184 = load ptr, ptr %6, align 8
  %185 = getelementptr inbounds nuw %struct._header_field_info, ptr %184, i32 0, i32 2
  %186 = load i32, ptr %185, align 8
  %187 = icmp eq i32 %186, 35
  br i1 %187, label %208, label %188

188:                                              ; preds = %183
  %189 = load ptr, ptr %6, align 8
  %190 = getelementptr inbounds nuw %struct._header_field_info, ptr %189, i32 0, i32 2
  %191 = load i32, ptr %190, align 8
  %192 = icmp eq i32 %191, 8
  br i1 %192, label %208, label %193

193:                                              ; preds = %188
  %194 = load ptr, ptr %6, align 8
  %195 = getelementptr inbounds nuw %struct._header_field_info, ptr %194, i32 0, i32 2
  %196 = load i32, ptr %195, align 8
  %197 = icmp eq i32 %196, 9
  br i1 %197, label %208, label %198

198:                                              ; preds = %193
  %199 = load ptr, ptr %6, align 8
  %200 = getelementptr inbounds nuw %struct._header_field_info, ptr %199, i32 0, i32 2
  %201 = load i32, ptr %200, align 8
  %202 = icmp eq i32 %201, 10
  br i1 %202, label %208, label %203

203:                                              ; preds = %198
  %204 = load ptr, ptr %6, align 8
  %205 = getelementptr inbounds nuw %struct._header_field_info, ptr %204, i32 0, i32 2
  %206 = load i32, ptr %205, align 8
  %207 = icmp eq i32 %206, 11
  br i1 %207, label %208, label %211

208:                                              ; preds = %203, %198, %193, %188, %183, %178, %173, %168, %163, %158, %153, %148, %143, %138, %133, %128, %123, %118, %101, %96, %91, %86, %81
  %209 = load i32, ptr %11, align 4
  %210 = add i32 %209, 1
  store i32 %210, ptr %11, align 4
  br label %211

211:                                              ; preds = %208, %203, %112
  br label %212

212:                                              ; preds = %211, %76, %66, %59
  br label %213

213:                                              ; preds = %212
  %214 = load i32, ptr %9, align 4
  %215 = add i32 %214, 1
  store i32 %215, ptr %9, align 4
  br label %38, !llvm.loop !6

216:                                              ; preds = %38
  %217 = load i32, ptr %8, align 4
  %218 = icmp ugt i32 %217, 0
  br i1 %218, label %219, label %224

219:                                              ; preds = %216
  %220 = load i32, ptr %11, align 4
  %221 = load i32, ptr %8, align 4
  %222 = icmp eq i32 %220, %221
  br i1 %222, label %223, label %224

223:                                              ; preds = %219
  store i8 1, ptr %7, align 1
  br label %224

224:                                              ; preds = %223, %219, %216
  br label %226

225:                                              ; preds = %16
  br label %226

226:                                              ; preds = %225, %224, %26
  %227 = load i8, ptr %7, align 1, !range !8, !noundef !9
  %228 = trunc i8 %227 to i1
  store i1 %228, ptr %3, align 1
  store i32 1, ptr %12, align 4
  br label %229

229:                                              ; preds = %226, %58, %15
  call void @llvm.lifetime.end.p0(i64 4, ptr %11) #3
  call void @llvm.lifetime.end.p0(i64 8, ptr %10) #3
  call void @llvm.lifetime.end.p0(i64 4, ptr %9) #3
  call void @llvm.lifetime.end.p0(i64 4, ptr %8) #3
  call void @llvm.lifetime.end.p0(i64 1, ptr %7) #3
  call void @llvm.lifetime.end.p0(i64 8, ptr %6) #3
  %230 = load i1, ptr %3, align 1
  ret i1 %230
}